target datalayout = "e-m:e-p270:32:32-p271:32:32-p272:64:64-i64:64-i128:128-f80:128-n8:16:32:64-S128"
target triple = "x86_64-pc-linux-gnu"

@phar_save_resolve_path = internal global ptr null, align 8

; Function Attrs: nounwind uwtable
define internal ptr @phar_resolve_path(ptr noundef %0) #0 {
  %2 = alloca ptr, align 8
  %3 = alloca ptr, align 8
  store ptr %0, ptr %2, align 8
  %4 = load ptr, ptr %2, align 8
  %5 = call ptr @phar_find_in_include_path(ptr noundef %4, ptr noundef null)
  store ptr %5, ptr %3, align 8
  %6 = load ptr, ptr %3, align 8
  %7 = icmp ne ptr %6, null
  br i1 %7, label %12, label %8

8:                                                ; preds = %1
  %9 = load ptr, ptr @phar_save_resolve_path, align 8
  %10 = load ptr, ptr %2, align 8
  %11 = call ptr %9(ptr noundef %10)
  store ptr %11, ptr %3, align 8
  br label %12

12:                                               ; preds = %8, %1
  %13 = load ptr, ptr %3, align 8
  ret ptr %13
}