; Function Attrs: nounwind uwtable
define internal ptr @phar_resolve_path(ptr noundef %0) #0 {
  %2 = tail call ptr @phar_find_in_include_path(ptr noundef %0, ptr noundef null) #23
  %.not = icmp eq ptr %2, null
  br i1 %.not, label %3, label %6

3:                                                ; preds = %1
  %4 = load ptr, ptr @phar_save_resolve_path, align 8
  %5 = tail call ptr %4(ptr noundef %0) #23
  br label %6

6:                                                ; preds = %3, %1
  %.0 = phi ptr [ %2, %1 ], [ %5, %3 ]
  ret ptr %.0
}